; Function Attrs: nofree nosync nounwind memory(read, argmem: readwrite, inaccessiblemem: write) uwtable
define range(i32 -2147483648, 1000) i32 @Kit_DsdCountLuts(ptr noundef %0, i32 noundef %1) local_unnamed_addr #15 {
Kit_DsdNtkRoot.exit.thread:
  %2 = alloca i32, align 4
  call void @llvm.lifetime.start.p0(i64 4, ptr nonnull %2) #27
  store i32 0, ptr %2, align 4, !tbaa !20
  %3 = getelementptr inbounds nuw i8, ptr %0, i64 6
  %4 = load i16, ptr %3, align 2, !tbaa !51
  %5 = lshr i16 %4, 1
  %6 = load i16, ptr %0, align 8, !tbaa !34
  %7 = icmp uge i16 %5, %6
  tail call void @llvm.assume(i1 %7)
  %8 = getelementptr inbounds nuw i8, ptr %0, i64 24
  %9 = load ptr, ptr %8, align 8, !tbaa !40
  %narrow.i = sub nuw nsw i16 %5, %6
  %10 = zext nneg i16 %narrow.i to i64
  %11 = getelementptr inbounds nuw ptr, ptr %9, i64 %10
  %12 = load ptr, ptr %11, align 8, !tbaa !41
  %13 = load i32, ptr %12, align 4
  %14 = and i32 %13, 448
  switch i32 %14, label %15 [
    i32 64, label %20
    i32 128, label %20
  ]

15:                                               ; preds = %Kit_DsdNtkRoot.exit.thread
  %16 = zext nneg i16 %5 to i32
  %17 = call i32 @Kit_DsdCountLuts_rec(ptr noundef nonnull %0, i32 noundef %1, i32 noundef %16, ptr noundef nonnull %2)
  %18 = load i32, ptr %2, align 4, !tbaa !20
  %19 = icmp sgt i32 %18, 999
  %. = select i1 %19, i32 -1, i32 %18
  br label %20

20:                                               ; preds = %Kit_DsdNtkRoot.exit.thread, %Kit_DsdNtkRoot.exit.thread, %15
  %.0 = phi i32 [ %., %15 ], [ 0, %Kit_DsdNtkRoot.exit.thread ], [ 0, %Kit_DsdNtkRoot.exit.thread ]
  call void @llvm.lifetime.end.p0(i64 4, ptr nonnull %2) #27
  ret i32 %.0
}